target datalayout = "e-m:e-p270:32:32-p271:32:32-p272:64:64-i64:64-i128:128-f80:128-n8:16:32:64-S128"
target triple = "x86_64-pc-linux-gnu"

%struct._zend_refcounted_h = type { i32, %union.anon.0 }
%union.anon.0 = type { i32 }
%struct.zend_type = type { ptr, i32 }
%struct._zend_string = type { %struct._zend_refcounted_h, i64, i64, [1 x i8] }
%struct._zend_arg_info = type { ptr, %struct.zend_type, ptr }
%struct.smart_str = type { ptr, i64 }

; Function Attrs: alwaysinline nounwind uwtable
define internal i64 @smart_str_alloc(ptr noundef %0, i64 noundef %1, i1 noundef zeroext %2) #3 {
  %4 = alloca ptr, align 8
  %5 = alloca i64, align 8
  %6 = alloca i8, align 1
  store ptr %0, ptr %4, align 8, !tbaa !16
  store i64 %1, ptr %5, align 8, !tbaa !43
  %7 = zext i1 %2 to i8
  store i8 %7, ptr %6, align 1, !tbaa !13
  %8 = load ptr, ptr %4, align 8, !tbaa !16
  %9 = getelementptr inbounds nuw %struct.smart_str, ptr %8, i32 0, i32 0
  %10 = load ptr, ptr %9, align 8, !tbaa !225
  %11 = icmp ne ptr %10, null
  %12 = xor i1 %11, true
  %13 = xor i1 %12, true
  %14 = xor i1 %13, true
  %15 = zext i1 %14 to i32
  %16 = sext i32 %15 to i64
  %17 = call i64 @llvm.expect.i64(i64 %16, i64 0)
  %18 = icmp ne i64 %17, 0
  br i1 %18, label %19, label %20

19:                                               ; preds = %3
  br label %40

20:                                               ; preds = %3
  %21 = load ptr, ptr %4, align 8, !tbaa !16
  %22 = getelementptr inbounds nuw %struct.smart_str, ptr %21, i32 0, i32 0
  %23 = load ptr, ptr %22, align 8, !tbaa !225
  %24 = getelementptr inbounds nuw %struct._zend_string, ptr %23, i32 0, i32 2
  %25 = load i64, ptr %24, align 8, !tbaa !23
  %26 = load i64, ptr %5, align 8, !tbaa !43
  %27 = add i64 %26, %25
  store i64 %27, ptr %5, align 8, !tbaa !43
  %28 = load i64, ptr %5, align 8, !tbaa !43
  %29 = load ptr, ptr %4, align 8, !tbaa !16
  %30 = getelementptr inbounds nuw %struct.smart_str, ptr %29, i32 0, i32 1
  %31 = load i64, ptr %30, align 8, !tbaa !227
  %32 = icmp uge i64 %28, %31
  %33 = xor i1 %32, true
  %34 = xor i1 %33, true
  %35 = zext i1 %34 to i32
  %36 = sext i32 %35 to i64
  %37 = call i64 @llvm.expect.i64(i64 %36, i64 0)
  %38 = icmp ne i64 %37, 0
  br i1 %38, label %39, label %50

39:                                               ; preds = %20
  br label %40

40:                                               ; preds = %39, %19
  %41 = load i8, ptr %6, align 1, !tbaa !13, !range !21, !noundef !22
  %42 = trunc i8 %41 to i1
  br i1 %42, label %43, label %46

43:                                               ; preds = %40
  %44 = load ptr, ptr %4, align 8, !tbaa !16
  %45 = load i64, ptr %5, align 8, !tbaa !43
  call void @smart_str_realloc(ptr noundef %44, i64 noundef %45)
  br label %49

46:                                               ; preds = %40
  %47 = load ptr, ptr %4, align 8, !tbaa !16
  %48 = load i64, ptr %5, align 8, !tbaa !43
  call void @smart_str_erealloc(ptr noundef %47, i64 noundef %48)
  br label %49

49:                                               ; preds = %46, %43
  br label %50

50:                                               ; preds = %49, %20
  br label %51

51:                                               ; preds = %50
  %52 = load i64, ptr %5, align 8, !tbaa !43
  ret i64 %52
}

; Function Attrs: alwaysinline nounwind uwtable
define internal void @smart_str_appendl_ex(ptr noundef %0, ptr noundef %1, i64 noundef %2, i1 noundef zeroext %3) #3 {
  %5 = alloca ptr, align 8
  %6 = alloca ptr, align 8
  %7 = alloca i64, align 8
  %8 = alloca i8, align 1
  %9 = alloca i64, align 8
  store ptr %0, ptr %5, align 8, !tbaa !16
  store ptr %1, ptr %6, align 8, !tbaa !66
  store i64 %2, ptr %7, align 8, !tbaa !43
  %10 = zext i1 %3 to i8
  store i8 %10, ptr %8, align 1, !tbaa !13
  call void @llvm.lifetime.start.p0(i64 8, ptr %9) #19
  %11 = load ptr, ptr %5, align 8, !tbaa !16
  %12 = load i64, ptr %7, align 8, !tbaa !43
  %13 = load i8, ptr %8, align 1, !tbaa !13, !range !21, !noundef !22
  %14 = trunc i8 %13 to i1
  %15 = call i64 @smart_str_alloc(ptr noundef %11, i64 noundef %12, i1 noundef zeroext %14)
  store i64 %15, ptr %9, align 8, !tbaa !43
  %16 = load ptr, ptr %5, align 8, !tbaa !16
  %17 = getelementptr inbounds nuw %struct.smart_str, ptr %16, i32 0, i32 0
  %18 = load ptr, ptr %17, align 8, !tbaa !225
  %19 = getelementptr inbounds nuw %struct._zend_string, ptr %18, i32 0, i32 3
  %20 = getelementptr inbounds [1 x i8], ptr %19, i64 0, i64 0
  %21 = load ptr, ptr %5, align 8, !tbaa !16
  %22 = getelementptr inbounds nuw %struct.smart_str, ptr %21, i32 0, i32 0
  %23 = load ptr, ptr %22, align 8, !tbaa !225
  %24 = getelementptr inbounds nuw %struct._zend_string, ptr %23, i32 0, i32 2
  %25 = load i64, ptr %24, align 8, !tbaa !23
  %26 = getelementptr inbounds nuw i8, ptr %20, i64 %25
  %27 = load ptr, ptr %6, align 8, !tbaa !66
  %28 = load i64, ptr %7, align 8, !tbaa !43
  call void @llvm.memcpy.p0.p0.i64(ptr align 1 %26, ptr align 1 %27, i64 %28, i1 false)
  %29 = load i64, ptr %9, align 8, !tbaa !43
  %30 = load ptr, ptr %5, align 8, !tbaa !16
  %31 = getelementptr inbounds nuw %struct.smart_str, ptr %30, i32 0, i32 0
  %32 = load ptr, ptr %31, align 8, !tbaa !225
  %33 = getelementptr inbounds nuw %struct._zend_string, ptr %32, i32 0, i32 2
  store i64 %29, ptr %33, align 8, !tbaa !23
  call void @llvm.lifetime.end.p0(i64 8, ptr %9) #19
  ret void
}

; Function Attrs: alwaysinline nounwind uwtable
define internal void @smart_str_appendc_ex(ptr noundef %0, i8 noundef signext %1, i1 noundef zeroext %2) #3 {
  %4 = alloca ptr, align 8
  %5 = alloca i8, align 1
  %6 = alloca i8, align 1
  %7 = alloca i64, align 8
  store ptr %0, ptr %4, align 8, !tbaa !16
  store i8 %1, ptr %5, align 1, !tbaa !46
  %8 = zext i1 %2 to i8
  store i8 %8, ptr %6, align 1, !tbaa !13
  call void @llvm.lifetime.start.p0(i64 8, ptr %7) #19
  %9 = load ptr, ptr %4, align 8, !tbaa !16
  %10 = load i8, ptr %6, align 1, !tbaa !13, !range !21, !noundef !22
  %11 = trunc i8 %10 to i1
  %12 = call i64 @smart_str_alloc(ptr noundef %9, i64 noundef 1, i1 noundef zeroext %11)
  store i64 %12, ptr %7, align 8, !tbaa !43
  %13 = load i8, ptr %5, align 1, !tbaa !46
  %14 = load ptr, ptr %4, align 8, !tbaa !16
  %15 = getelementptr inbounds nuw %struct.smart_str, ptr %14, i32 0, i32 0
  %16 = load ptr, ptr %15, align 8, !tbaa !225
  %17 = getelementptr inbounds nuw %struct._zend_string, ptr %16, i32 0, i32 3
  %18 = load i64, ptr %7, align 8, !tbaa !43
  %19 = sub i64 %18, 1
  %20 = getelementptr inbounds nuw [1 x i8], ptr %17, i64 0, i64 %19
  store i8 %13, ptr %20, align 1, !tbaa !46
  %21 = load i64, ptr %7, align 8, !tbaa !43
  %22 = load ptr, ptr %4, align 8, !tbaa !16
  %23 = getelementptr inbounds nuw %struct.smart_str, ptr %22, i32 0, i32 0
  %24 = load ptr, ptr %23, align 8, !tbaa !225
  %25 = getelementptr inbounds nuw %struct._zend_string, ptr %24, i32 0, i32 2
  store i64 %21, ptr %25, align 8, !tbaa !23
  call void @llvm.lifetime.end.p0(i64 8, ptr %7) #19
  ret void
}

; Function Attrs: alwaysinline nounwind uwtable
define internal i32 @zend_gc_delref(ptr noundef %0) #3 {
  %2 = alloca ptr, align 8
  store ptr %0, ptr %2, align 8, !tbaa !101
  %3 = load ptr, ptr %2, align 8, !tbaa !101
  %4 = getelementptr inbounds nuw %struct._zend_refcounted_h, ptr %3, i32 0, i32 0
  %5 = load i32, ptr %4, align 4, !tbaa !103
  %6 = icmp ugt i32 %5, 0
  call void @llvm.assume(i1 %6)
  br label %7

7:                                                ; preds = %1
  br label %8

8:                                                ; preds = %7
  %9 = load ptr, ptr %2, align 8, !tbaa !101
  %10 = getelementptr inbounds nuw %struct._zend_refcounted_h, ptr %9, i32 0, i32 0
  %11 = load i32, ptr %10, align 4, !tbaa !103
  %12 = add i32 %11, -1
  store i32 %12, ptr %10, align 4, !tbaa !103
  ret i32 %12
}

; Function Attrs: alwaysinline nounwind uwtable
define internal i32 @zval_gc_flags(i32 noundef %0) #3 {
  %2 = alloca i32, align 4
  store i32 %0, ptr %2, align 4, !tbaa !4
  %3 = load i32, ptr %2, align 4, !tbaa !4
  %4 = lshr i32 %3, 0
  %5 = and i32 %4, 1008
  ret i32 %5
}

; Function Attrs: alwaysinline nounwind uwtable
define internal void @smart_str_append_ex(ptr noundef %0, ptr noundef %1, i1 noundef zeroext %2) #3 {
  %4 = alloca ptr, align 8
  %5 = alloca ptr, align 8
  %6 = alloca i8, align 1
  store ptr %0, ptr %4, align 8, !tbaa !16
  store ptr %1, ptr %5, align 8, !tbaa !19
  %7 = zext i1 %2 to i8
  store i8 %7, ptr %6, align 1, !tbaa !13
  %8 = load ptr, ptr %4, align 8, !tbaa !16
  %9 = load ptr, ptr %5, align 8, !tbaa !19
  %10 = getelementptr inbounds nuw %struct._zend_string, ptr %9, i32 0, i32 3
  %11 = getelementptr inbounds [1 x i8], ptr %10, i64 0, i64 0
  %12 = load ptr, ptr %5, align 8, !tbaa !19
  %13 = getelementptr inbounds nuw %struct._zend_string, ptr %12, i32 0, i32 2
  %14 = load i64, ptr %13, align 8, !tbaa !23
  %15 = load i8, ptr %6, align 1, !tbaa !13, !range !21, !noundef !22
  %16 = trunc i8 %15 to i1
  call void @smart_str_appendl_ex(ptr noundef %8, ptr noundef %11, i64 noundef %14, i1 noundef zeroext %16)
  ret void
}

; Function Attrs: alwaysinline nounwind uwtable
define internal void @smart_str_appendc(ptr noundef %0, i8 noundef signext %1) #3 {
  %3 = alloca ptr, align 8
  %4 = alloca i8, align 1
  store ptr %0, ptr %3, align 8, !tbaa !16
  store i8 %1, ptr %4, align 1, !tbaa !46
  %5 = load ptr, ptr %3, align 8, !tbaa !16
  %6 = load i8, ptr %4, align 1, !tbaa !46
  call void @smart_str_appendc_ex(ptr noundef %5, i8 noundef signext %6, i1 noundef zeroext false)
  ret void
}

; Function Attrs: alwaysinline nounwind uwtable
define internal void @zend_string_release(ptr noundef %0) #3 {
  %2 = alloca ptr, align 8
  store ptr %0, ptr %2, align 8, !tbaa !19
  %3 = load ptr, ptr %2, align 8, !tbaa !19
  %4 = getelementptr inbounds nuw %struct._zend_string, ptr %3, i32 0, i32 0
  %5 = getelementptr inbounds nuw %struct._zend_refcounted_h, ptr %4, i32 0, i32 1
  %6 = load i32, ptr %5, align 4, !tbaa !46
  %7 = call i32 @zval_gc_flags(i32 noundef %6)
  %8 = and i32 %7, 64
  %9 = icmp ne i32 %8, 0
  br i1 %9, label %29, label %10

10:                                               ; preds = %1
  %11 = load ptr, ptr %2, align 8, !tbaa !19
  %12 = getelementptr inbounds nuw %struct._zend_string, ptr %11, i32 0, i32 0
  %13 = call i32 @zend_gc_delref(ptr noundef %12)
  %14 = icmp eq i32 %13, 0
  br i1 %14, label %15, label %28

15:                                               ; preds = %10
  %16 = load ptr, ptr %2, align 8, !tbaa !19
  %17 = getelementptr inbounds nuw %struct._zend_string, ptr %16, i32 0, i32 0
  %18 = getelementptr inbounds nuw %struct._zend_refcounted_h, ptr %17, i32 0, i32 1
  %19 = load i32, ptr %18, align 4, !tbaa !46
  %20 = call i32 @zval_gc_flags(i32 noundef %19)
  %21 = and i32 %20, 128
  %22 = icmp ne i32 %21, 0
  br i1 %22, label %23, label %25

23:                                               ; preds = %15
  %24 = load ptr, ptr %2, align 8, !tbaa !19
  call void @free(ptr noundef %24) #19
  br label %27

25:                                               ; preds = %15
  %26 = load ptr, ptr %2, align 8, !tbaa !19
  call void @_efree(ptr noundef %26)
  br label %27

27:                                               ; preds = %25, %23
  br label %28

28:                                               ; preds = %27, %10
  br label %29

29:                                               ; preds = %28, %1
  ret void
}

; Function Attrs: alwaysinline nounwind uwtable
define internal void @smart_str_append(ptr noundef %0, ptr noundef %1) #3 {
  %3 = alloca ptr, align 8
  %4 = alloca ptr, align 8
  store ptr %0, ptr %3, align 8, !tbaa !16
  store ptr %1, ptr %4, align 8, !tbaa !19
  %5 = load ptr, ptr %3, align 8, !tbaa !16
  %6 = load ptr, ptr %4, align 8, !tbaa !19
  call void @smart_str_append_ex(ptr noundef %5, ptr noundef %6, i1 noundef zeroext false)
  ret void
}

; Function Attrs: nounwind uwtable
define internal void @zend_append_type_hint(ptr noundef %0, ptr noundef %1, ptr noundef %2, i1 noundef zeroext %3) #0 {
  %5 = alloca ptr, align 8
  %6 = alloca ptr, align 8
  %7 = alloca ptr, align 8
  %8 = alloca i8, align 1
  %9 = alloca ptr, align 8
  store ptr %0, ptr %5, align 8, !tbaa !16
  store ptr %1, ptr %6, align 8, !tbaa !8
  store ptr %2, ptr %7, align 8, !tbaa !77
  %10 = zext i1 %3 to i8
  store i8 %10, ptr %8, align 1, !tbaa !13
  %11 = load ptr, ptr %7, align 8, !tbaa !77
  %12 = getelementptr inbounds nuw %struct._zend_arg_info, ptr %11, i32 0, i32 1
  %13 = getelementptr inbounds nuw %struct.zend_type, ptr %12, i32 0, i32 1
  %14 = load i32, ptr %13, align 8, !tbaa !79
  %15 = and i32 %14, 33554431
  %16 = icmp ne i32 %15, 0
  br i1 %16, label %17, label %34

17:                                               ; preds = %4
  call void @llvm.lifetime.start.p0(i64 8, ptr %9) #19
  %18 = load ptr, ptr %7, align 8, !tbaa !77
  %19 = getelementptr inbounds nuw %struct._zend_arg_info, ptr %18, i32 0, i32 1
  %20 = load ptr, ptr %6, align 8, !tbaa !8
  %21 = getelementptr inbounds nuw { ptr, i32 }, ptr %19, i32 0, i32 0
  %22 = load ptr, ptr %21, align 8
  %23 = getelementptr inbounds nuw { ptr, i32 }, ptr %19, i32 0, i32 1
  %24 = load i32, ptr %23, align 8
  %25 = call ptr @zend_type_to_string_resolved(ptr %22, i32 %24, ptr noundef %20)
  store ptr %25, ptr %9, align 8, !tbaa !19
  %26 = load ptr, ptr %5, align 8, !tbaa !16
  %27 = load ptr, ptr %9, align 8, !tbaa !19
  call void @smart_str_append(ptr noundef %26, ptr noundef %27)
  %28 = load ptr, ptr %9, align 8, !tbaa !19
  call void @zend_string_release(ptr noundef %28)
  %29 = load i8, ptr %8, align 1, !tbaa !13, !range !21, !noundef !22
  %30 = trunc i8 %29 to i1
  br i1 %30, label %33, label %31

31:                                               ; preds = %17
  %32 = load ptr, ptr %5, align 8, !tbaa !16
  call void @smart_str_appendc(ptr noundef %32, i8 noundef signext 32)
  br label %33

33:                                               ; preds = %31, %17
  call void @llvm.lifetime.end.p0(i64 8, ptr %9) #19
  br label %34

34:                                               ; preds = %33, %4
  ret void
}