; Function Attrs: nounwind uwtable
define internal fastcc void @zend_append_type_hint(ptr noundef nonnull %0, ptr noundef %1, ptr noundef readonly captures(none) %2, i1 noundef zeroext %3) unnamed_addr #2 {
  %5 = getelementptr inbounds nuw i8, ptr %2, i64 16
  %6 = load i32, ptr %5, align 8, !tbaa !113
  %7 = and i32 %6, 33554431
  %.not = icmp eq i32 %7, 0
  br i1 %.not, label %56, label %8

8:                                                ; preds = %4
  %9 = getelementptr inbounds nuw i8, ptr %2, i64 8
  %10 = load ptr, ptr %9, align 8
  %11 = tail call ptr @zend_type_to_string_resolved(ptr %10, i32 %6, ptr noundef %1) #17
  %12 = getelementptr inbounds nuw i8, ptr %11, i64 24
  %13 = getelementptr inbounds nuw i8, ptr %11, i64 16
  %14 = load i64, ptr %13, align 8, !tbaa !13
  %15 = load ptr, ptr %0, align 8, !tbaa !228
  %.not.i.i = icmp eq ptr %15, null
  br i1 %.not.i.i, label %22, label %16, !prof !95

16:                                               ; preds = %8
  %17 = getelementptr inbounds nuw i8, ptr %15, i64 16
  %18 = load i64, ptr %17, align 8, !tbaa !13
  %19 = add i64 %18, %14
  %20 = getelementptr inbounds nuw i8, ptr %0, i64 8
  %21 = load i64, ptr %20, align 8, !tbaa !230
  %.not12.i.i = icmp ult i64 %19, %21
  br i1 %.not12.i.i, label %smart_str_append_ex.exit, label %22, !prof !82

22:                                               ; preds = %16, %8
  %.0.i.i = phi i64 [ %14, %8 ], [ %19, %16 ]
  tail call void @smart_str_erealloc(ptr noundef nonnull %0, i64 noundef %.0.i.i) #17
  %.pre = load ptr, ptr %0, align 8, !tbaa !228
  %.phi.trans.insert = getelementptr inbounds nuw i8, ptr %.pre, i64 16
  %.pre11 = load i64, ptr %.phi.trans.insert, align 8, !tbaa !13
  br label %smart_str_append_ex.exit

smart_str_append_ex.exit:                         ; preds = %16, %22
  %23 = phi i64 [ %.pre11, %22 ], [ %18, %16 ]
  %24 = phi ptr [ %.pre, %22 ], [ %15, %16 ]
  %.1.i.i = phi i64 [ %.0.i.i, %22 ], [ %19, %16 ]
  %25 = getelementptr inbounds nuw i8, ptr %24, i64 24
  %26 = getelementptr inbounds nuw i8, ptr %25, i64 %23
  tail call void @llvm.memcpy.p0.p0.i64(ptr nonnull align 1 %26, ptr nonnull align 1 %12, i64 %14, i1 false)
  %27 = load ptr, ptr %0, align 8, !tbaa !228
  %28 = getelementptr inbounds nuw i8, ptr %27, i64 16
  store i64 %.1.i.i, ptr %28, align 8, !tbaa !13
  %29 = getelementptr inbounds nuw i8, ptr %11, i64 4
  %30 = load i32, ptr %29, align 4, !tbaa !21
  %31 = and i32 %30, 64
  %.not.i = icmp eq i32 %31, 0
  br i1 %.not.i, label %32, label %zend_string_release.exit

32:                                               ; preds = %smart_str_append_ex.exit
  %33 = load i32, ptr %11, align 4, !tbaa !84
  %34 = icmp ne i32 %33, 0
  tail call void @llvm.assume(i1 %34)
  %35 = add i32 %33, -1
  store i32 %35, ptr %11, align 4, !tbaa !84
  %36 = icmp eq i32 %35, 0
  br i1 %36, label %37, label %zend_string_release.exit

37:                                               ; preds = %32
  %38 = and i32 %30, 128
  %.not5.i = icmp eq i32 %38, 0
  br i1 %.not5.i, label %40, label %39

39:                                               ; preds = %37
  tail call void @free(ptr noundef nonnull %11) #17
  br label %zend_string_release.exit

40:                                               ; preds = %37
  tail call void @_efree(ptr noundef nonnull %11) #17
  br label %zend_string_release.exit

zend_string_release.exit:                         ; preds = %smart_str_append_ex.exit, %32, %39, %40
  br i1 %3, label %56, label %41

41:                                               ; preds = %zend_string_release.exit
  %42 = load ptr, ptr %0, align 8, !tbaa !228
  %.not.i.i7 = icmp eq ptr %42, null
  br i1 %.not.i.i7, label %49, label %43, !prof !95

43:                                               ; preds = %41
  %44 = getelementptr inbounds nuw i8, ptr %42, i64 16
  %45 = load i64, ptr %44, align 8, !tbaa !13
  %46 = add i64 %45, 1
  %47 = getelementptr inbounds nuw i8, ptr %0, i64 8
  %48 = load i64, ptr %47, align 8, !tbaa !230
  %.not12.i.i8 = icmp ult i64 %46, %48
  br i1 %.not12.i.i8, label %smart_str_appendc_ex.exit, label %49, !prof !82

49:                                               ; preds = %43, %41
  %.0.i.i9 = phi i64 [ 1, %41 ], [ %46, %43 ]
  tail call void @smart_str_erealloc(ptr noundef nonnull %0, i64 noundef %.0.i.i9) #17
  %.pre12 = load ptr, ptr %0, align 8, !tbaa !228
  br label %smart_str_appendc_ex.exit

smart_str_appendc_ex.exit:                        ; preds = %43, %49
  %50 = phi ptr [ %.pre12, %49 ], [ %42, %43 ]
  %.1.i.i10 = phi i64 [ %.0.i.i9, %49 ], [ %46, %43 ]
  %51 = getelementptr inbounds nuw i8, ptr %50, i64 24
  %52 = add i64 %.1.i.i10, -1
  %53 = getelementptr inbounds nuw [1 x i8], ptr %51, i64 0, i64 %52
  store i8 32, ptr %53, align 1, !tbaa !21
  %54 = load ptr, ptr %0, align 8, !tbaa !228
  %55 = getelementptr inbounds nuw i8, ptr %54, i64 16
  store i64 %.1.i.i10, ptr %55, align 8, !tbaa !13
  br label %56

56:                                               ; preds = %zend_string_release.exit, %smart_str_appendc_ex.exit, %4
  ret void
}